target datalayout = "e-m:e-p270:32:32-p271:32:32-p272:64:64-i64:64-i128:128-f80:128-n8:16:32:64-S128"
target triple = "x86_64-pc-linux-gnu"

%struct.Vmem = type { ptr, i64, i64 }
%struct.GenContext_ = type { i8, ptr, ptr, ptr, ptr, ptr, ptr, ptr, ptr, ptr, ptr, ptr, ptr, ptr, ptr, ptr, ptr, ptr, ptr, ptr, ptr, ptr, ptr, ptr, ptr, ptr, ptr, ptr, ptr, ptr, ptr, ptr, ptr, %struct.anon.85, i32, i32, %struct.DebugContext, ptr, ptr, ptr, %struct.BEValue, i8, %union.SourceSpan, ptr, ptr, ptr, ptr }
%struct.anon.85 = type { ptr, ptr, ptr }
%struct.DebugContext = type { i16, ptr, ptr, %struct.DebugFile_, ptr, ptr, ptr, ptr }
%struct.DebugFile_ = type { i16, ptr }
%struct.BEValue = type { i8, i32, ptr, ptr, ptr }
%union.SourceSpan = type { i64 }
%struct.Ast_ = type { %union.SourceSpan, i32, i8, %union.anon.61 }
%union.anon.61 = type { %struct.AstDocDirective_ }
%struct.AstDocDirective_ = type { i8, %union.anon.64 }
%union.anon.64 = type { %struct.anon.65 }
%struct.anon.65 = type { ptr, %union.SourceSpan, i8 }
%struct.AstCompoundStmt = type { i32 }

@ast_arena = external global %struct.Vmem, align 8

; Function Attrs: nounwind uwtable
define internal ptr @astptr(i32 noundef %0) #0 {
  %2 = alloca i32, align 4
  store i32 %0, ptr %2, align 4
  %3 = load ptr, ptr @ast_arena, align 8
  %4 = load i32, ptr %2, align 4
  %5 = zext i32 %4 to i64
  %6 = getelementptr inbounds %struct.Ast_, ptr %3, i64 %5
  ret ptr %6
}

; Function Attrs: nounwind uwtable
define dso_local void @llvm_emit_compound_stmt(ptr noundef %0, ptr noundef %1) #0 {
  %3 = alloca ptr, align 8
  %4 = alloca ptr, align 8
  %5 = alloca ptr, align 8
  %6 = alloca i32, align 4
  %7 = alloca ptr, align 8
  %8 = alloca ptr, align 8
  %9 = alloca ptr, align 8
  %10 = alloca ptr, align 8
  store ptr %0, ptr %9, align 8
  store ptr %1, ptr %10, align 8
  br label %11

11:                                               ; preds = %2
  %12 = load ptr, ptr %9, align 8
  store ptr %12, ptr %7, align 8
  %13 = load ptr, ptr %7, align 8
  %14 = getelementptr inbounds %struct.GenContext_, ptr %13, i32 0, i32 36
  %15 = getelementptr inbounds %struct.DebugContext, ptr %14, i32 0, i32 1
  %16 = load ptr, ptr %15, align 8
  %17 = icmp ne ptr %16, null
  br i1 %17, label %18, label %24

18:                                               ; preds = %11
  %19 = load ptr, ptr %9, align 8
  %20 = load ptr, ptr %10, align 8
  %21 = getelementptr inbounds %struct.Ast_, ptr %20, i32 0, i32 0
  %22 = getelementptr inbounds %union.SourceSpan, ptr %21, i32 0, i32 0
  %23 = load i64, ptr %22, align 8
  call void @llvm_debug_push_lexical_scope(ptr noundef %19, i64 %23)
  br label %24

24:                                               ; preds = %18, %11
  br label %25

25:                                               ; preds = %24
  %26 = load ptr, ptr %9, align 8
  %27 = load ptr, ptr %10, align 8
  %28 = getelementptr inbounds %struct.Ast_, ptr %27, i32 0, i32 3
  %29 = getelementptr inbounds %struct.AstCompoundStmt, ptr %28, i32 0, i32 0
  %30 = load i32, ptr %29, align 8
  store ptr %26, ptr %5, align 8
  store i32 %30, ptr %6, align 4
  br label %31

31:                                               ; preds = %34, %25
  %32 = load i32, ptr %6, align 4
  %33 = icmp ne i32 %32, 0
  br i1 %33, label %34, label %44

34:                                               ; preds = %31
  %35 = load ptr, ptr %5, align 8
  store ptr %6, ptr %3, align 8
  %36 = load ptr, ptr %3, align 8
  %37 = load i32, ptr %36, align 4
  %38 = call ptr @astptr(i32 noundef %37)
  store ptr %38, ptr %4, align 8
  %39 = load ptr, ptr %4, align 8
  %40 = getelementptr inbounds %struct.Ast_, ptr %39, i32 0, i32 1
  %41 = load i32, ptr %40, align 8
  %42 = load ptr, ptr %3, align 8
  store i32 %41, ptr %42, align 4
  %43 = load ptr, ptr %4, align 8
  call void @llvm_emit_stmt(ptr noundef %35, ptr noundef %43)
  br label %31, !llvm.loop !7

44:                                               ; preds = %31
  br label %45

45:                                               ; preds = %44
  %46 = load ptr, ptr %9, align 8
  store ptr %46, ptr %8, align 8
  %47 = load ptr, ptr %8, align 8
  %48 = getelementptr inbounds %struct.GenContext_, ptr %47, i32 0, i32 36
  %49 = getelementptr inbounds %struct.DebugContext, ptr %48, i32 0, i32 1
  %50 = load ptr, ptr %49, align 8
  %51 = icmp ne ptr %50, null
  br i1 %51, label %52, label %54

52:                                               ; preds = %45
  %53 = load ptr, ptr %9, align 8
  call void @llvm_debug_scope_pop(ptr noundef %53)
  br label %54

54:                                               ; preds = %52, %45
  br label %55

55:                                               ; preds = %54
  ret void
}