; Function Attrs: nounwind uwtable
define dso_local void @llvm_emit_compound_stmt(ptr noundef %0, ptr nocapture noundef readonly %1) local_unnamed_addr #0 {
  %3 = getelementptr inbounds i8, ptr %0, i64 304
  %4 = load ptr, ptr %3, align 8
  %.not = icmp eq ptr %4, null
  br i1 %.not, label %7, label %5

5:                                                ; preds = %2
  %6 = load i64, ptr %1, align 8
  tail call void @llvm_debug_push_lexical_scope(ptr noundef nonnull %0, i64 %6) #9
  br label %7

7:                                                ; preds = %2, %5
  %8 = getelementptr inbounds i8, ptr %1, i64 16
  %9 = load i32, ptr %8, align 8
  %.not1517 = icmp eq i32 %9, 0
  br i1 %.not1517, label %._crit_edge, label %.lr.ph

.lr.ph:                                           ; preds = %7, %.lr.ph
  %.018 = phi i32 [ %14, %.lr.ph ], [ %9, %7 ]
  %10 = load ptr, ptr @ast_arena, align 8
  %11 = zext i32 %.018 to i64
  %12 = getelementptr inbounds %struct.Ast_, ptr %10, i64 %11
  %13 = getelementptr inbounds i8, ptr %12, i64 8
  %14 = load i32, ptr %13, align 8
  tail call void @llvm_emit_stmt(ptr noundef %0, ptr noundef nonnull %12)
  %.not15 = icmp eq i32 %14, 0
  br i1 %.not15, label %._crit_edge, label %.lr.ph, !llvm.loop !7

._crit_edge:                                      ; preds = %.lr.ph, %7
  %15 = load ptr, ptr %3, align 8
  %.not16 = icmp eq ptr %15, null
  br i1 %.not16, label %17, label %16

16:                                               ; preds = %._crit_edge
  tail call void @llvm_debug_scope_pop(ptr noundef nonnull %0) #9
  br label %17

17:                                               ; preds = %._crit_edge, %16
  ret void
}